target datalayout = "e-m:e-p270:32:32-p271:32:32-p272:64:64-i64:64-i128:128-f80:128-n8:16:32:64-S128"
target triple = "x86_64-pc-linux-gnu"

%"class.std::__1::basic_string" = type { %"class.std::__1::__compressed_pair.5" }
%"class.std::__1::__compressed_pair.5" = type { %"struct.std::__1::__compressed_pair_elem.6" }
%"struct.std::__1::__compressed_pair_elem.6" = type { %"struct.std::__1::basic_string<char>::__rep" }
%"struct.std::__1::basic_string<char>::__rep" = type { %union.anon.7 }
%union.anon.7 = type { %"struct.std::__1::basic_string<char>::__long" }
%"struct.std::__1::basic_string<char>::__long" = type { %struct.anon.8, i64, ptr }
%struct.anon.8 = type { i64 }
%"class.mitsuba::FileStream" = type { %"class.mitsuba::Stream", i32, [4 x i8], %"class.mitsuba::filesystem::path", %"class.std::__1::unique_ptr" }
%"class.mitsuba::Stream" = type { %"class.mitsuba::Object.base", i32 }
%"class.mitsuba::Object.base" = type <{ ptr, %"struct.std::__1::atomic" }>
%"struct.std::__1::atomic" = type { %"struct.std::__1::__atomic_base" }
%"struct.std::__1::__atomic_base" = type { %"struct.std::__1::__atomic_base.0" }
%"struct.std::__1::__atomic_base.0" = type { %"struct.std::__1::__cxx_atomic_impl" }
%"struct.std::__1::__cxx_atomic_impl" = type { %"struct.std::__1::__cxx_atomic_base_impl" }
%"struct.std::__1::__cxx_atomic_base_impl" = type { i32 }
%"class.mitsuba::filesystem::path" = type <{ %"class.std::__1::vector", i8, [7 x i8] }>
%"class.std::__1::vector" = type { ptr, ptr, %"class.std::__1::__compressed_pair" }
%"class.std::__1::__compressed_pair" = type { %"struct.std::__1::__compressed_pair_elem" }
%"struct.std::__1::__compressed_pair_elem" = type { ptr }
%"class.std::__1::unique_ptr" = type { %"class.std::__1::__compressed_pair.2" }
%"class.std::__1::__compressed_pair.2" = type { %"struct.std::__1::__compressed_pair_elem.3" }
%"struct.std::__1::__compressed_pair_elem.3" = type { ptr }
%"struct.std::__1::__less" = type { i8 }

@_ZN7mitsuba10FileStream7m_classE = global ptr null, align 8
@.str = private unnamed_addr constant [116 x i8] c"generated/home/dtcxzyw/WorkSpace/Projects/compilers/llvm-opt-benchmark/bench/mitsuba3/mitsuba3/src/core/fstream.cpp\00", align 1
@.str.5 = private unnamed_addr constant [52 x i8] c"\22%s\22: attempting to truncate a read-only FileStream\00", align 1

; Function Attrs: mustprogress nounwind uwtable
define linkonce_odr hidden noundef zeroext i1 @_ZNKSt3__16__lessIvvEclB8ne190000ImmEEbRKT_RKT0_(ptr noundef nonnull align 1 dereferenceable(1) %0, ptr noundef nonnull align 8 dereferenceable(8) %1, ptr noundef nonnull align 8 dereferenceable(8) %2) #4 comdat align 2 {
  %4 = alloca ptr, align 8
  %5 = alloca ptr, align 8
  %6 = alloca ptr, align 8
  store ptr %0, ptr %4, align 8
  store ptr %1, ptr %5, align 8
  store ptr %2, ptr %6, align 8
  %7 = load ptr, ptr %5, align 8
  %8 = load i64, ptr %7, align 8
  %9 = load ptr, ptr %6, align 8
  %10 = load i64, ptr %9, align 8
  %11 = icmp ult i64 %8, %10
  ret i1 %11
}

; Function Attrs: mustprogress uwtable
define linkonce_odr hidden noundef nonnull align 8 dereferenceable(8) ptr @_ZNSt3__13minB8ne190000ImNS_6__lessIvvEEEERKT_S5_S5_T0_(ptr noundef nonnull align 8 dereferenceable(8) %0, ptr noundef nonnull align 8 dereferenceable(8) %1) #0 comdat {
  %3 = alloca %"struct.std::__1::__less", align 1
  %4 = alloca ptr, align 8
  %5 = alloca ptr, align 8
  store ptr %0, ptr %4, align 8
  store ptr %1, ptr %5, align 8
  %6 = load ptr, ptr %5, align 8
  %7 = load ptr, ptr %4, align 8
  %8 = call noundef zeroext i1 @_ZNKSt3__16__lessIvvEclB8ne190000ImmEEbRKT_RKT0_(ptr noundef nonnull align 1 dereferenceable(1) %3, ptr noundef nonnull align 8 dereferenceable(8) %6, ptr noundef nonnull align 8 dereferenceable(8) %7)
  br i1 %8, label %9, label %11

9:                                                ; preds = %2
  %10 = load ptr, ptr %5, align 8
  br label %13

11:                                               ; preds = %2
  %12 = load ptr, ptr %4, align 8
  br label %13

13:                                               ; preds = %11, %9
  %14 = phi ptr [ %10, %9 ], [ %12, %11 ]
  ret ptr %14
}

; Function Attrs: mustprogress uwtable
define linkonce_odr hidden noundef nonnull align 8 dereferenceable(8) ptr @_ZNSt3__13minB8ne190000ImEERKT_S3_S3_(ptr noundef nonnull align 8 dereferenceable(8) %0, ptr noundef nonnull align 8 dereferenceable(8) %1) #0 comdat {
  %3 = alloca ptr, align 8
  %4 = alloca ptr, align 8
  store ptr %0, ptr %3, align 8
  store ptr %1, ptr %4, align 8
  %5 = load ptr, ptr %3, align 8
  %6 = load ptr, ptr %4, align 8
  %7 = call noundef nonnull align 8 dereferenceable(8) ptr @_ZNSt3__13minB8ne190000ImNS_6__lessIvvEEEERKT_S5_S5_T0_(ptr noundef nonnull align 8 dereferenceable(8) %5, ptr noundef nonnull align 8 dereferenceable(8) %6)
  ret ptr %7
}

; Function Attrs: mustprogress uwtable
define void @_ZN7mitsuba10FileStream8truncateEm(ptr noundef nonnull align 8 dereferenceable(64) %0, i64 noundef %1) unnamed_addr #0 align 2 personality ptr @__gxx_personality_v0 {
  %3 = alloca ptr, align 8
  %4 = alloca i64, align 8
  %5 = alloca %"class.std::__1::basic_string", align 8
  %6 = alloca %"class.std::__1::basic_string", align 8
  %7 = alloca ptr, align 8
  %8 = alloca i32, align 4
  %9 = alloca i64, align 8
  store ptr %0, ptr %3, align 8
  store i64 %1, ptr %4, align 8
  %10 = load ptr, ptr %3, align 8
  %11 = getelementptr inbounds %"class.mitsuba::FileStream", ptr %10, i32 0, i32 1
  %12 = load i32, ptr %11, align 8
  %13 = icmp eq i32 %12, 0
  br i1 %13, label %14, label %30

14:                                               ; preds = %2
  br label %15

15:                                               ; preds = %14
  %16 = load ptr, ptr @_ZN7mitsuba10FileStream7m_classE, align 8
  %17 = getelementptr inbounds %"class.mitsuba::FileStream", ptr %10, i32 0, i32 3
  call void @_ZNK7mitsuba10filesystem4path6stringEv(ptr dead_on_unwind writable sret(%"class.std::__1::basic_string") align 8 %6, ptr noundef nonnull align 8 dereferenceable(25) %17)
  invoke void @_ZN10tinyformat6formatIJNSt3__112basic_stringIcNS1_11char_traitsIcEENS1_9allocatorIcEEEEEEES7_PKcDpRKT_(ptr dead_on_unwind writable sret(%"class.std::__1::basic_string") align 8 %5, ptr noundef @.str.5, ptr noundef nonnull align 8 dereferenceable(24) %6)
          to label %18 unwind label %20

18:                                               ; preds = %15
  invoke void @_ZN7mitsuba6detail5ThrowENS_8LogLevelEPKNS_5ClassEPKciRKNSt3__112basic_stringIcNS7_11char_traitsIcEENS7_9allocatorIcEEEE(i32 noundef 400, ptr noundef %16, ptr noundef @.str, i32 noundef 78, ptr noundef nonnull align 8 dereferenceable(24) %5) #20
          to label %19 unwind label %24

19:                                               ; preds = %18
  unreachable

20:                                               ; preds = %15
  %21 = landingpad { ptr, i32 }
          cleanup
  %22 = extractvalue { ptr, i32 } %21, 0
  store ptr %22, ptr %7, align 8
  %23 = extractvalue { ptr, i32 } %21, 1
  store i32 %23, ptr %8, align 4
  br label %28

24:                                               ; preds = %18
  %25 = landingpad { ptr, i32 }
          cleanup
  %26 = extractvalue { ptr, i32 } %25, 0
  store ptr %26, ptr %7, align 8
  %27 = extractvalue { ptr, i32 } %25, 1
  store i32 %27, ptr %8, align 4
  call void @_ZNSt3__112basic_stringIcNS_11char_traitsIcEENS_9allocatorIcEEED1Ev(ptr noundef nonnull align 8 dereferenceable(24) %5) #18
  br label %28

28:                                               ; preds = %24, %20
  call void @_ZNSt3__112basic_stringIcNS_11char_traitsIcEENS_9allocatorIcEEED1Ev(ptr noundef nonnull align 8 dereferenceable(24) %6) #18
  br label %49

29:                                               ; No predecessors!
  br label %30

30:                                               ; preds = %29, %2
  %31 = load ptr, ptr %10, align 8
  %32 = getelementptr inbounds ptr, ptr %31, i64 17
  %33 = load ptr, ptr %32, align 8
  call void %33(ptr noundef nonnull align 8 dereferenceable(64) %10)
  %34 = load ptr, ptr %10, align 8
  %35 = getelementptr inbounds ptr, ptr %34, i64 15
  %36 = load ptr, ptr %35, align 8
  %37 = call noundef i64 %36(ptr noundef nonnull align 8 dereferenceable(64) %10)
  store i64 %37, ptr %9, align 8
  %38 = load ptr, ptr %10, align 8
  %39 = getelementptr inbounds ptr, ptr %38, i64 13
  %40 = load ptr, ptr %39, align 8
  call void %40(ptr noundef nonnull align 8 dereferenceable(64) %10, i64 noundef 0)
  %41 = getelementptr inbounds %"class.mitsuba::FileStream", ptr %10, i32 0, i32 3
  %42 = load i64, ptr %4, align 8
  %43 = call noundef zeroext i1 @_ZN7mitsuba10filesystem11resize_fileERKNS0_4pathEm(ptr noundef nonnull align 8 dereferenceable(25) %41, i64 noundef %42) #18
  %44 = call noundef nonnull align 8 dereferenceable(8) ptr @_ZNSt3__13minB8ne190000ImEERKT_S3_S3_(ptr noundef nonnull align 8 dereferenceable(8) %9, ptr noundef nonnull align 8 dereferenceable(8) %4)
  %45 = load i64, ptr %44, align 8
  %46 = load ptr, ptr %10, align 8
  %47 = getelementptr inbounds ptr, ptr %46, i64 13
  %48 = load ptr, ptr %47, align 8
  call void %48(ptr noundef nonnull align 8 dereferenceable(64) %10, i64 noundef %45)
  ret void

49:                                               ; preds = %28
  %50 = load ptr, ptr %7, align 8
  %51 = load i32, ptr %8, align 4
  %52 = insertvalue { ptr, i32 } poison, ptr %50, 0
  %53 = insertvalue { ptr, i32 } %52, i32 %51, 1
  resume { ptr, i32 } %53
}