; Function Attrs: mustprogress uwtable
define void @_ZN7mitsuba10FileStream8truncateEm(ptr noundef nonnull align 8 dereferenceable(64) %0, i64 noundef %1) unnamed_addr #0 align 2 personality ptr @__gxx_personality_v0 {
  %3 = alloca %"class.std::__1::basic_string", align 8
  %4 = alloca %"class.std::__1::basic_string", align 8
  %5 = getelementptr inbounds i8, ptr %0, i64 16
  %6 = load i32, ptr %5, align 8
  %7 = icmp eq i32 %6, 0
  br i1 %7, label %8, label %18

8:                                                ; preds = %2
  %9 = load ptr, ptr @_ZN7mitsuba10FileStream7m_classE, align 8
  %10 = getelementptr inbounds i8, ptr %0, i64 24
  call void @_ZNK7mitsuba10filesystem4path6stringEv(ptr dead_on_unwind nonnull writable sret(%"class.std::__1::basic_string") align 8 %4, ptr noundef nonnull align 8 dereferenceable(25) %10)
  invoke void @_ZN10tinyformat6formatIJNSt3__112basic_stringIcNS1_11char_traitsIcEENS1_9allocatorIcEEEEEEES7_PKcDpRKT_(ptr dead_on_unwind nonnull writable sret(%"class.std::__1::basic_string") align 8 %3, ptr noundef nonnull @.str.5, ptr noundef nonnull align 8 dereferenceable(24) %4)
          to label %11 unwind label %13

11:                                               ; preds = %8
  invoke void @_ZN7mitsuba6detail5ThrowENS_8LogLevelEPKNS_5ClassEPKciRKNSt3__112basic_stringIcNS7_11char_traitsIcEENS7_9allocatorIcEEEE(i32 noundef 400, ptr noundef %9, ptr noundef nonnull @.str, i32 noundef 78, ptr noundef nonnull align 8 dereferenceable(24) %3) #21
          to label %12 unwind label %15

12:                                               ; preds = %11
  unreachable

13:                                               ; preds = %8
  %14 = landingpad { ptr, i32 }
          cleanup
  br label %17

15:                                               ; preds = %11
  %16 = landingpad { ptr, i32 }
          cleanup
  call void @_ZNSt3__112basic_stringIcNS_11char_traitsIcEENS_9allocatorIcEEED1Ev(ptr noundef nonnull align 8 dereferenceable(24) %3) #19
  br label %17

17:                                               ; preds = %15, %13
  %.pn = phi { ptr, i32 } [ %16, %15 ], [ %14, %13 ]
  call void @_ZNSt3__112basic_stringIcNS_11char_traitsIcEENS_9allocatorIcEEED1Ev(ptr noundef nonnull align 8 dereferenceable(24) %4) #19
  resume { ptr, i32 } %.pn

18:                                               ; preds = %2
  %19 = load ptr, ptr %0, align 8
  %20 = getelementptr inbounds i8, ptr %19, i64 136
  %21 = load ptr, ptr %20, align 8
  tail call void %21(ptr noundef nonnull align 8 dereferenceable(64) %0)
  %22 = load ptr, ptr %0, align 8
  %23 = getelementptr inbounds i8, ptr %22, i64 120
  %24 = load ptr, ptr %23, align 8
  %25 = tail call noundef i64 %24(ptr noundef nonnull align 8 dereferenceable(64) %0)
  %26 = load ptr, ptr %0, align 8
  %27 = getelementptr inbounds i8, ptr %26, i64 104
  %28 = load ptr, ptr %27, align 8
  tail call void %28(ptr noundef nonnull align 8 dereferenceable(64) %0, i64 noundef 0)
  %29 = getelementptr inbounds i8, ptr %0, i64 24
  %30 = tail call noundef zeroext i1 @_ZN7mitsuba10filesystem11resize_fileERKNS0_4pathEm(ptr noundef nonnull align 8 dereferenceable(25) %29, i64 noundef %1) #19
  %.sroa.speculated = tail call i64 @llvm.umin.i64(i64 %25, i64 %1)
  %31 = load ptr, ptr %0, align 8
  %32 = getelementptr inbounds i8, ptr %31, i64 104
  %33 = load ptr, ptr %32, align 8
  tail call void %33(ptr noundef nonnull align 8 dereferenceable(64) %0, i64 noundef %.sroa.speculated)
  ret void
}